; Function Attrs: mustprogress nofree nounwind willreturn memory(read, inaccessiblemem: none) uwtable
define hidden noundef zeroext i1 @_ZNK4llvh16FoldingSetNodeIDltENS_19FoldingSetNodeIDRefE(ptr nocapture noundef nonnull readonly align 8 dereferenceable(144) %this, ptr nocapture readonly %RHS.coerce0, i64 %RHS.coerce1) local_unnamed_addr #1 align 2 {
entry:
  %Size.i = getelementptr inbounds i8, ptr %this, i64 8
  %0 = load i32, ptr %Size.i, align 8
  %conv.i = zext i32 %0 to i64
  %cmp.not.i = icmp eq i64 %conv.i, %RHS.coerce1
  br i1 %cmp.not.i, label %if.end.i, label %if.then.i

if.then.i:                                        ; preds = %entry
  %cmp5.i = icmp ult i64 %conv.i, %RHS.coerce1
  br label %_ZNK4llvh19FoldingSetNodeIDRefltES0_.exit

if.end.i:                                         ; preds = %entry
  %1 = load ptr, ptr %this, align 8
  %mul.i = shl nuw nsw i64 %RHS.coerce1, 2
  %call.i = tail call i32 @memcmp(ptr noundef %1, ptr noundef %RHS.coerce0, i64 noundef %mul.i) #20
  %cmp8.i = icmp slt i32 %call.i, 0
  br label %_ZNK4llvh19FoldingSetNodeIDRefltES0_.exit

_ZNK4llvh19FoldingSetNodeIDRefltES0_.exit:        ; preds = %if.then.i, %if.end.i
  %retval.0.i = phi i1 [ %cmp5.i, %if.then.i ], [ %cmp8.i, %if.end.i ]
  ret i1 %retval.0.i
}